; Function Attrs: mustprogress nofree norecurse nosync nounwind willreturn memory(read, inaccessiblemem: none) uwtable
define noundef i32 @_ZNK19OpenColorIO_v2_4dev17ProcessorMetadata11getNumLooksEv(ptr nocapture noundef nonnull readonly align 8 dereferenceable(8) %this) local_unnamed_addr #5 align 2 {
entry:
  %0 = load ptr, ptr %this, align 8
  %looks = getelementptr inbounds i8, ptr %0, i64 48
  %_M_finish.i = getelementptr inbounds i8, ptr %0, i64 56
  %1 = load ptr, ptr %_M_finish.i, align 8
  %2 = load ptr, ptr %looks, align 8
  %sub.ptr.lhs.cast.i = ptrtoint ptr %1 to i64
  %sub.ptr.rhs.cast.i = ptrtoint ptr %2 to i64
  %sub.ptr.sub.i = sub i64 %sub.ptr.lhs.cast.i, %sub.ptr.rhs.cast.i
  %sub.ptr.div.i = lshr exact i64 %sub.ptr.sub.i, 5
  %conv = trunc i64 %sub.ptr.div.i to i32
  ret i32 %conv
}